; Function Attrs: mustprogress uwtable
define dso_local void @_ZN3net23QuicBufferedPacketStore14BufferedPacketC2EOS1_(ptr noundef nonnull align 8 dereferenceable(72) %this, ptr noundef nonnull align 8 dereferenceable(72) %other) unnamed_addr #0 align 2 personality ptr @__gxx_personality_v0 {
entry:
  %0 = load i64, ptr %other, align 8
  store i64 %0, ptr %this, align 8
  store ptr null, ptr %other, align 8
  %server_address = getelementptr inbounds i8, ptr %this, i64 8
  %server_address3 = getelementptr inbounds i8, ptr %other, i64 8
  invoke void @_ZN3net10IPEndPointC1ERKS0_(ptr noundef nonnull align 8 dereferenceable(26) %server_address, ptr noundef nonnull align 8 dereferenceable(26) %server_address3)
          to label %invoke.cont unwind label %lpad

invoke.cont:                                      ; preds = %entry
  %client_address = getelementptr inbounds i8, ptr %this, i64 40
  %client_address4 = getelementptr inbounds i8, ptr %other, i64 40
  invoke void @_ZN3net10IPEndPointC1ERKS0_(ptr noundef nonnull align 8 dereferenceable(26) %client_address, ptr noundef nonnull align 8 dereferenceable(26) %client_address4)
          to label %invoke.cont6 unwind label %lpad5

invoke.cont6:                                     ; preds = %invoke.cont
  ret void

lpad:                                             ; preds = %entry
  %1 = landingpad { ptr, i32 }
          cleanup
  br label %ehcleanup

lpad5:                                            ; preds = %invoke.cont
  %2 = landingpad { ptr, i32 }
          cleanup
  tail call void @_ZN3net10IPEndPointD1Ev(ptr noundef nonnull align 8 dereferenceable(26) %server_address) #17
  br label %ehcleanup

ehcleanup:                                        ; preds = %lpad5, %lpad
  %.pn = phi { ptr, i32 } [ %2, %lpad5 ], [ %1, %lpad ]
  %3 = load ptr, ptr %this, align 8
  %cmp.not.i = icmp eq ptr %3, null
  br i1 %cmp.not.i, label %_ZNSt10unique_ptrIN3net18QuicReceivedPacketESt14default_deleteIS1_EED2Ev.exit, label %_ZNKSt14default_deleteIN3net18QuicReceivedPacketEEclEPS1_.exit.i

_ZNKSt14default_deleteIN3net18QuicReceivedPacketEEclEPS1_.exit.i: ; preds = %ehcleanup
  %vtable.i.i = load ptr, ptr %3, align 8
  %vfn.i.i = getelementptr inbounds i8, ptr %vtable.i.i, i64 8
  %4 = load ptr, ptr %vfn.i.i, align 8
  tail call void %4(ptr noundef nonnull align 8 dereferenceable(45) %3) #17
  br label %_ZNSt10unique_ptrIN3net18QuicReceivedPacketESt14default_deleteIS1_EED2Ev.exit

_ZNSt10unique_ptrIN3net18QuicReceivedPacketESt14default_deleteIS1_EED2Ev.exit: ; preds = %ehcleanup, %_ZNKSt14default_deleteIN3net18QuicReceivedPacketEEclEPS1_.exit.i
  store ptr null, ptr %this, align 8
  resume { ptr, i32 } %.pn
}